target datalayout = "e-m:e-p270:32:32-p271:32:32-p272:64:64-i64:64-i128:128-f80:128-n8:16:32:64-S128"
target triple = "x86_64-pc-linux-gnu"

@hf_param_pi = internal global i32 0, align 4
@hf_param_pl = internal global i32 0, align 4
@hf_param_pv = internal global i32 0, align 4

; Function Attrs: null_pointer_is_valid sspstrong uwtable
define hidden i32 @dissect_param_tuple(ptr noundef %0, ptr noundef %1, i32 noundef %2) #0 {
  %4 = alloca ptr, align 8
  %5 = alloca ptr, align 8
  %6 = alloca i32, align 4
  %7 = alloca i8, align 1
  store ptr %0, ptr %4, align 8
  store ptr %1, ptr %5, align 8
  store i32 %2, ptr %6, align 4
  call void @llvm.lifetime.start.p0(i64 1, ptr %7) #7
  %8 = load ptr, ptr %4, align 8
  %9 = load i32, ptr %6, align 4
  %10 = add i32 %9, 1
  %11 = call zeroext i8 @tvb_get_uint8(ptr noundef %8, i32 noundef %10)
  store i8 %11, ptr %7, align 1
  %12 = load ptr, ptr %5, align 8
  %13 = icmp ne ptr %12, null
  br i1 %13, label %14, label %20

14:                                               ; preds = %3
  %15 = load ptr, ptr %5, align 8
  %16 = load i32, ptr @hf_param_pi, align 4
  %17 = load ptr, ptr %4, align 8
  %18 = load i32, ptr %6, align 4
  %19 = call ptr @proto_tree_add_item(ptr noundef %15, i32 noundef %16, ptr noundef %17, i32 noundef %18, i32 noundef 1, i32 noundef 0)
  br label %20

20:                                               ; preds = %14, %3
  %21 = load i32, ptr %6, align 4
  %22 = add i32 %21, 1
  store i32 %22, ptr %6, align 4
  %23 = load ptr, ptr %5, align 8
  %24 = icmp ne ptr %23, null
  br i1 %24, label %25, label %31

25:                                               ; preds = %20
  %26 = load ptr, ptr %5, align 8
  %27 = load i32, ptr @hf_param_pl, align 4
  %28 = load ptr, ptr %4, align 8
  %29 = load i32, ptr %6, align 4
  %30 = call ptr @proto_tree_add_item(ptr noundef %26, i32 noundef %27, ptr noundef %28, i32 noundef %29, i32 noundef 1, i32 noundef 0)
  br label %31

31:                                               ; preds = %25, %20
  %32 = load i32, ptr %6, align 4
  %33 = add i32 %32, 1
  store i32 %33, ptr %6, align 4
  %34 = load i8, ptr %7, align 1
  %35 = zext i8 %34 to i32
  %36 = icmp sgt i32 %35, 0
  br i1 %36, label %37, label %53

37:                                               ; preds = %31
  %38 = load ptr, ptr %5, align 8
  %39 = icmp ne ptr %38, null
  br i1 %39, label %40, label %48

40:                                               ; preds = %37
  %41 = load ptr, ptr %5, align 8
  %42 = load i32, ptr @hf_param_pv, align 4
  %43 = load ptr, ptr %4, align 8
  %44 = load i32, ptr %6, align 4
  %45 = load i8, ptr %7, align 1
  %46 = zext i8 %45 to i32
  %47 = call ptr @proto_tree_add_item(ptr noundef %41, i32 noundef %42, ptr noundef %43, i32 noundef %44, i32 noundef %46, i32 noundef 0)
  br label %48

48:                                               ; preds = %40, %37
  %49 = load i8, ptr %7, align 1
  %50 = zext i8 %49 to i32
  %51 = load i32, ptr %6, align 4
  %52 = add i32 %51, %50
  store i32 %52, ptr %6, align 4
  br label %53

53:                                               ; preds = %48, %31
  %54 = load i32, ptr %6, align 4
  call void @llvm.lifetime.end.p0(i64 1, ptr %7) #7
  ret i32 %54
}