; Function Attrs: null_pointer_is_valid sspstrong uwtable
define hidden i32 @dissect_param_tuple(ptr noundef %0, ptr noundef %1, i32 noundef %2) local_unnamed_addr #0 {
  %4 = add i32 %2, 1
  %5 = tail call zeroext i8 @tvb_get_uint8(ptr noundef %0, i32 noundef %4)
  %.not = icmp eq ptr %1, null
  br i1 %.not, label %.critedge, label %.critedge.thread

.critedge:                                        ; preds = %3
  %6 = add i32 %2, 2
  %7 = zext i8 %5 to i32
  %.not22 = icmp eq i8 %5, 0
  br i1 %.not22, label %21, label %17

.critedge.thread:                                 ; preds = %3
  %8 = load i32, ptr @hf_param_pi, align 4
  %9 = tail call ptr @proto_tree_add_item(ptr noundef nonnull %1, i32 noundef %8, ptr noundef %0, i32 noundef %2, i32 noundef 1, i32 noundef 0)
  %10 = load i32, ptr @hf_param_pl, align 4
  %11 = tail call ptr @proto_tree_add_item(ptr noundef nonnull %1, i32 noundef %10, ptr noundef %0, i32 noundef %4, i32 noundef 1, i32 noundef 0)
  %12 = add i32 %2, 2
  %.not2223 = icmp eq i8 %5, 0
  br i1 %.not2223, label %21, label %13

13:                                               ; preds = %.critedge.thread
  %14 = zext i8 %5 to i32
  %15 = load i32, ptr @hf_param_pv, align 4
  %16 = tail call ptr @proto_tree_add_item(ptr noundef nonnull %1, i32 noundef %15, ptr noundef %0, i32 noundef %12, i32 noundef %14, i32 noundef 0)
  br label %17

17:                                               ; preds = %.critedge, %13
  %18 = phi i32 [ %12, %13 ], [ %6, %.critedge ]
  %19 = phi i32 [ %14, %13 ], [ %7, %.critedge ]
  %20 = add i32 %19, %18
  br label %21

21:                                               ; preds = %.critedge.thread, %17, %.critedge
  %.0 = phi i32 [ %20, %17 ], [ %6, %.critedge ], [ %12, %.critedge.thread ]
  ret i32 %.0
}